target datalayout = "e-m:e-p270:32:32-p271:32:32-p272:64:64-i64:64-i128:128-f80:128-n8:16:32:64-S128"
target triple = "x86_64-pc-linux-gnu"

%struct.gmx_sparsematrix = type { i8, i32, ptr, ptr, ptr }

@.str = private unnamed_addr constant [2 x i8] c"A\00", align 1
@.str.1 = private unnamed_addr constant [136 x i8] c"generated/home/dtcxzyw/WorkSpace/Projects/compilers/llvm-opt-benchmark/bench/gromacs/gromacs/src/gromacs/linearalgebra/sparsematrix.cpp\00", align 1
@.str.2 = private unnamed_addr constant [9 x i8] c"A->ndata\00", align 1
@.str.3 = private unnamed_addr constant [10 x i8] c"A->nalloc\00", align 1
@.str.4 = private unnamed_addr constant [8 x i8] c"A->data\00", align 1
@.str.5 = private unnamed_addr constant [11 x i8] c"A->data[i]\00", align 1

; Function Attrs: inlinehint mustprogress uwtable
define internal void @_ZL14gmx_sfree_implI16gmx_sparsematrixEvPKcS2_iPT_(ptr noundef %0, ptr noundef %1, i32 noundef %2, ptr noundef %3) #2 {
  %5 = alloca ptr, align 8
  %6 = alloca ptr, align 8
  %7 = alloca i32, align 4
  %8 = alloca ptr, align 8
  store ptr %0, ptr %5, align 8, !tbaa !23
  store ptr %1, ptr %6, align 8, !tbaa !23
  store i32 %2, ptr %7, align 4, !tbaa !3
  store ptr %3, ptr %8, align 8, !tbaa !7
  %9 = load ptr, ptr %5, align 8, !tbaa !23
  %10 = load ptr, ptr %6, align 8, !tbaa !23
  %11 = load i32, ptr %7, align 4, !tbaa !3
  %12 = load ptr, ptr %8, align 8, !tbaa !7
  call void @_Z9save_freePKcS0_iPv(ptr noundef %9, ptr noundef %10, i32 noundef %11, ptr noundef %12)
  ret void
}

; Function Attrs: inlinehint mustprogress uwtable
define internal void @_ZL14gmx_sfree_implIP22gmx_sparsematrix_entryEvPKcS3_iPT_(ptr noundef %0, ptr noundef %1, i32 noundef %2, ptr noundef %3) #2 {
  %5 = alloca ptr, align 8
  %6 = alloca ptr, align 8
  %7 = alloca i32, align 4
  %8 = alloca ptr, align 8
  store ptr %0, ptr %5, align 8, !tbaa !23
  store ptr %1, ptr %6, align 8, !tbaa !23
  store i32 %2, ptr %7, align 4, !tbaa !3
  store ptr %3, ptr %8, align 8, !tbaa !35
  %9 = load ptr, ptr %5, align 8, !tbaa !23
  %10 = load ptr, ptr %6, align 8, !tbaa !23
  %11 = load i32, ptr %7, align 4, !tbaa !3
  %12 = load ptr, ptr %8, align 8, !tbaa !35
  call void @_Z9save_freePKcS0_iPv(ptr noundef %9, ptr noundef %10, i32 noundef %11, ptr noundef %12)
  ret void
}

; Function Attrs: inlinehint mustprogress uwtable
define internal void @_ZL14gmx_sfree_implIiEvPKcS1_iPT_(ptr noundef %0, ptr noundef %1, i32 noundef %2, ptr noundef %3) #2 {
  %5 = alloca ptr, align 8
  %6 = alloca ptr, align 8
  %7 = alloca i32, align 4
  %8 = alloca ptr, align 8
  store ptr %0, ptr %5, align 8, !tbaa !23
  store ptr %1, ptr %6, align 8, !tbaa !23
  store i32 %2, ptr %7, align 4, !tbaa !3
  store ptr %3, ptr %8, align 8, !tbaa !31
  %9 = load ptr, ptr %5, align 8, !tbaa !23
  %10 = load ptr, ptr %6, align 8, !tbaa !23
  %11 = load i32, ptr %7, align 4, !tbaa !3
  %12 = load ptr, ptr %8, align 8, !tbaa !31
  call void @_Z9save_freePKcS0_iPv(ptr noundef %9, ptr noundef %10, i32 noundef %11, ptr noundef %12)
  ret void
}

; Function Attrs: inlinehint mustprogress uwtable
define internal void @_ZL14gmx_sfree_implI22gmx_sparsematrix_entryEvPKcS2_iPT_(ptr noundef %0, ptr noundef %1, i32 noundef %2, ptr noundef %3) #2 {
  %5 = alloca ptr, align 8
  %6 = alloca ptr, align 8
  %7 = alloca i32, align 4
  %8 = alloca ptr, align 8
  store ptr %0, ptr %5, align 8, !tbaa !23
  store ptr %1, ptr %6, align 8, !tbaa !23
  store i32 %2, ptr %7, align 4, !tbaa !3
  store ptr %3, ptr %8, align 8, !tbaa !19
  %9 = load ptr, ptr %5, align 8, !tbaa !23
  %10 = load ptr, ptr %6, align 8, !tbaa !23
  %11 = load i32, ptr %7, align 4, !tbaa !3
  %12 = load ptr, ptr %8, align 8, !tbaa !19
  call void @_Z9save_freePKcS0_iPv(ptr noundef %9, ptr noundef %10, i32 noundef %11, ptr noundef %12)
  ret void
}

; Function Attrs: mustprogress uwtable
define void @_Z24gmx_sparsematrix_destroyP16gmx_sparsematrix(ptr noundef %0) #0 {
  %2 = alloca ptr, align 8
  %3 = alloca i32, align 4
  store ptr %0, ptr %2, align 8, !tbaa !7
  call void @llvm.lifetime.start.p0(i64 4, ptr %3) #7
  store i32 0, ptr %3, align 4, !tbaa !3
  br label %4

4:                                                ; preds = %28, %1
  %5 = load i32, ptr %3, align 4, !tbaa !3
  %6 = load ptr, ptr %2, align 8, !tbaa !7
  %7 = getelementptr inbounds nuw %struct.gmx_sparsematrix, ptr %6, i32 0, i32 1
  %8 = load i32, ptr %7, align 4, !tbaa !10
  %9 = icmp slt i32 %5, %8
  br i1 %9, label %10, label %31

10:                                               ; preds = %4
  %11 = load ptr, ptr %2, align 8, !tbaa !7
  %12 = getelementptr inbounds nuw %struct.gmx_sparsematrix, ptr %11, i32 0, i32 4
  %13 = load ptr, ptr %12, align 8, !tbaa !18
  %14 = load i32, ptr %3, align 4, !tbaa !3
  %15 = sext i32 %14 to i64
  %16 = getelementptr inbounds ptr, ptr %13, i64 %15
  %17 = load ptr, ptr %16, align 8, !tbaa !19
  %18 = icmp ne ptr %17, null
  br i1 %18, label %19, label %27

19:                                               ; preds = %10
  %20 = load ptr, ptr %2, align 8, !tbaa !7
  %21 = getelementptr inbounds nuw %struct.gmx_sparsematrix, ptr %20, i32 0, i32 4
  %22 = load ptr, ptr %21, align 8, !tbaa !18
  %23 = load i32, ptr %3, align 4, !tbaa !3
  %24 = sext i32 %23 to i64
  %25 = getelementptr inbounds ptr, ptr %22, i64 %24
  %26 = load ptr, ptr %25, align 8, !tbaa !19
  call void @_ZL14gmx_sfree_implI22gmx_sparsematrix_entryEvPKcS2_iPT_(ptr noundef @.str.5, ptr noundef @.str.1, i32 noundef 77, ptr noundef %26)
  br label %27

27:                                               ; preds = %19, %10
  br label %28

28:                                               ; preds = %27
  %29 = load i32, ptr %3, align 4, !tbaa !3
  %30 = add nsw i32 %29, 1
  store i32 %30, ptr %3, align 4, !tbaa !3
  br label %4, !llvm.loop !36

31:                                               ; preds = %4
  %32 = load ptr, ptr %2, align 8, !tbaa !7
  %33 = getelementptr inbounds nuw %struct.gmx_sparsematrix, ptr %32, i32 0, i32 2
  %34 = load ptr, ptr %33, align 8, !tbaa !16
  call void @_ZL14gmx_sfree_implIiEvPKcS1_iPT_(ptr noundef @.str.2, ptr noundef @.str.1, i32 noundef 81, ptr noundef %34)
  %35 = load ptr, ptr %2, align 8, !tbaa !7
  %36 = getelementptr inbounds nuw %struct.gmx_sparsematrix, ptr %35, i32 0, i32 3
  %37 = load ptr, ptr %36, align 8, !tbaa !17
  call void @_ZL14gmx_sfree_implIiEvPKcS1_iPT_(ptr noundef @.str.3, ptr noundef @.str.1, i32 noundef 82, ptr noundef %37)
  %38 = load ptr, ptr %2, align 8, !tbaa !7
  %39 = getelementptr inbounds nuw %struct.gmx_sparsematrix, ptr %38, i32 0, i32 4
  %40 = load ptr, ptr %39, align 8, !tbaa !18
  call void @_ZL14gmx_sfree_implIP22gmx_sparsematrix_entryEvPKcS3_iPT_(ptr noundef @.str.4, ptr noundef @.str.1, i32 noundef 83, ptr noundef %40)
  %41 = load ptr, ptr %2, align 8, !tbaa !7
  call void @_ZL14gmx_sfree_implI16gmx_sparsematrixEvPKcS2_iPT_(ptr noundef @.str, ptr noundef @.str.1, i32 noundef 85, ptr noundef %41)
  call void @llvm.lifetime.end.p0(i64 4, ptr %3) #7
  ret void
}