; Function Attrs: mustprogress uwtable
define void @_Z24gmx_sparsematrix_destroyP16gmx_sparsematrix(ptr noundef %0) local_unnamed_addr #0 {
  %2 = getelementptr inbounds nuw i8, ptr %0, i64 4
  %3 = load i32, ptr %2, align 4, !tbaa !3
  %4 = icmp sgt i32 %3, 0
  br i1 %4, label %.lr.ph, label %._crit_edge

.lr.ph:                                           ; preds = %1
  %5 = getelementptr inbounds nuw i8, ptr %0, i64 24
  br label %6

6:                                                ; preds = %.lr.ph, %12
  %7 = phi i32 [ %3, %.lr.ph ], [ %13, %12 ]
  %indvars.iv = phi i64 [ 0, %.lr.ph ], [ %indvars.iv.next, %12 ]
  %8 = load ptr, ptr %5, align 8, !tbaa !22
  %9 = getelementptr inbounds nuw ptr, ptr %8, i64 %indvars.iv
  %10 = load ptr, ptr %9, align 8, !tbaa !18
  %.not = icmp eq ptr %10, null
  br i1 %.not, label %12, label %11

11:                                               ; preds = %6
  tail call void @_Z9save_freePKcS0_iPv(ptr noundef nonnull @.str.5, ptr noundef nonnull @.str.1, i32 noundef 77, ptr noundef nonnull %10)
  %.pre = load i32, ptr %2, align 4, !tbaa !3
  br label %12

12:                                               ; preds = %6, %11
  %13 = phi i32 [ %7, %6 ], [ %.pre, %11 ]
  %indvars.iv.next = add nuw nsw i64 %indvars.iv, 1
  %14 = sext i32 %13 to i64
  %15 = icmp slt i64 %indvars.iv.next, %14
  br i1 %15, label %6, label %._crit_edge, !llvm.loop !23

._crit_edge:                                      ; preds = %12, %1
  %16 = getelementptr inbounds nuw i8, ptr %0, i64 8
  %17 = load ptr, ptr %16, align 8, !tbaa !15
  tail call void @_Z9save_freePKcS0_iPv(ptr noundef nonnull @.str.2, ptr noundef nonnull @.str.1, i32 noundef 81, ptr noundef %17)
  %18 = getelementptr inbounds nuw i8, ptr %0, i64 16
  %19 = load ptr, ptr %18, align 8, !tbaa !16
  tail call void @_Z9save_freePKcS0_iPv(ptr noundef nonnull @.str.3, ptr noundef nonnull @.str.1, i32 noundef 82, ptr noundef %19)
  %20 = getelementptr inbounds nuw i8, ptr %0, i64 24
  %21 = load ptr, ptr %20, align 8, !tbaa !22
  tail call void @_Z9save_freePKcS0_iPv(ptr noundef nonnull @.str.4, ptr noundef nonnull @.str.1, i32 noundef 83, ptr noundef %21)
  tail call void @_Z9save_freePKcS0_iPv(ptr noundef nonnull @.str, ptr noundef nonnull @.str.1, i32 noundef 85, ptr noundef nonnull %0)
  ret void
}